ccopy_reg
_reconstructor
p0
(cconfig
Config
p1
c__builtin__
object
p2
Ntp3
Rp4
(dp5
S'global_step'
p6
cnumpy.core.multiarray
scalar
p7
(cnumpy
dtype
p8
(S'i4'
p9
I0
I1
tp10
Rp11
(I3
S'<'
p12
NNNI-1
I-1
I0
tp13
bS'\xcf\x07\x00\x00'
p14
tp15
Rp16
sS'learning_rate_decay_factor'
p17
F1.0
sS'num_lstm_units'
p18
I512
sS'test_result_dir'
p19
S'./test/results/'
p20
sS'conv_kernel_regularizer_scale'
p21
F0.0001
sS'fc_kernel_initializer_scale'
p22
F0.08
sS'num_epochs'
p23
I100
sS'save_eval_result_as_image'
p24
I00
sS'eval_caption_file'
p25
S'./val/captions_val2014.json'
p26
sS'fc_activity_regularizer_scale'
p27
F0.0
sS'eval_result_dir'
p28
S'./val/results/'
p29
sS'dim_initalize_layer'
p30
I512
sS'fc_drop_rate'
p31
F0.5
sS'lstm_drop_rate'
p32
F0.3
sS'decay'
p33
F0.9
sS'temp_data_file'
p34
S'./train/data.npy'
p35
sS'num_steps_per_decay'
p36
I100000
sS'dim_embedding'
p37
I512
sS'train_cnn'
p38
I00
sS'initial_learning_rate'
p39
F0.0001
sS'beta2'
p40
F0.999
sS'beta1'
p41
F0.9
sS'summary_dir'
p42
S'./summary/'
p43
sS'cnn'
p44
S'vgg16'
p45
sS'dim_decode_layer'
p46
I1024
sS'momentum'
p47
F0.0
sS'num_decode_layers'
p48
I2
sS'use_nesterov'
p49
I01
sS'eval_result_file'
p50
S'./val/results.json'
p51
sS'optimizer'
p52
S'Adam'
p53
sS'train_image_dir'
p54
S'./train/images/'
p55
sS'centered'
p56
I01
sS'test_result_file'
p57
S'./test/results.csv'
p58
sS'epsilon'
p59
F1e-06
sS'vocabulary_size'
p60
I5000
sS'attention_loss_factor'
p61
F0.01
sS'batch_size'
p62
I32
sS'phase'
p63
S'train'
p64
sS'fc_kernel_regularizer_scale'
p65
F0.0001
sS'conv_activity_regularizer_scale'
p66
F0.0
sS'max_caption_length'
p67
I20
sS'temp_annotation_file'
p68
S'./train/anns.csv'
p69
sS'test_image_dir'
p70
S'./test/images/'
p71
sS'train_caption_file'
p72
S'./train/captions_train2014.json'
p73
sS'num_initalize_layers'
p74
I2
sS'clip_gradients'
p75
F5.0
sS'vocabulary_file'
p76
S'./vocabulary.csv'
p77
sS'beam_size'
p78
I3
sS'dim_attend_layer'
p79
I512
sS'num_attend_layers'
p80
I2
sS'save_dir'
p81
S'./models/'
p82
sS'eval_image_dir'
p83
S'./val/images/'
p84
sS'save_period'
p85
I1000
sb.